; Function Attrs: uwtable
define void @_ZThn16_NK20ExtraSampleGPUPlugin10filterNameEi(ptr dead_on_unwind noalias nocapture writable writeonly sret(%class.QString) align 8 %0, ptr nocapture noundef readnone %1, i32 noundef %2) unnamed_addr #12 align 2 {
  tail call void @llvm.experimental.noalias.scope.decl(metadata !17)
  %4 = icmp eq i32 %2, 0
  br i1 %4, label %5, label %7

5:                                                ; preds = %3
  %6 = tail call noundef ptr @_ZN7QString16fromAscii_helperEPKci(ptr noundef nonnull @.str.8, i32 noundef 18), !noalias !17
  br label %_ZNK20ExtraSampleGPUPlugin10filterNameEi.exit

7:                                                ; preds = %3
  %8 = tail call noundef ptr @_ZN7QString16fromAscii_helperEPKci(ptr noundef nonnull @.str.9, i32 noundef 0), !noalias !17
  br label %_ZNK20ExtraSampleGPUPlugin10filterNameEi.exit

_ZNK20ExtraSampleGPUPlugin10filterNameEi.exit:    ; preds = %5, %7
  %storemerge.i = phi ptr [ %8, %7 ], [ %6, %5 ]
  store ptr %storemerge.i, ptr %0, align 8, !alias.scope !17
  ret void
}